target datalayout = "e-m:e-p270:32:32-p271:32:32-p272:64:64-i64:64-i128:128-f80:128-n8:16:32:64-S128"
target triple = "x86_64-pc-linux-gnu"

%struct.CatalogId = type { i32, i32 }
%struct._dumpableObject = type { i32, %struct.CatalogId, i32, ptr, ptr, i32, i32, i32, i8, i8, ptr, i32, i32 }
%struct.PQExpBufferData = type { ptr, i64, i64 }

@.str.516 = private unnamed_addr constant [8 x i8] c"classid\00", align 1
@.str.517 = private unnamed_addr constant [6 x i8] c"objid\00", align 1
@.str.518 = private unnamed_addr constant [9 x i8] c"refobjid\00", align 1
@.str.1612 = private unnamed_addr constant [24 x i8] c"reading dependency data\00", align 1
@.str.1613 = private unnamed_addr constant [109 x i8] c"SELECT classid, objid, refclassid, refobjid, deptype FROM pg_depend WHERE deptype != 'p' AND deptype != 'e'\0A\00", align 1
@.str.1616 = private unnamed_addr constant [13 x i8] c"ORDER BY 1,2\00", align 1
@.str.1617 = private unnamed_addr constant [11 x i8] c"refclassid\00", align 1
@.str.1618 = private unnamed_addr constant [8 x i8] c"deptype\00", align 1

; Function Attrs: nounwind uwtable
define internal void @getDependencies(ptr noundef %0) #0 {
  %2 = alloca ptr, align 8
  %3 = alloca ptr, align 8
  %4 = alloca ptr, align 8
  %5 = alloca i32, align 4
  %6 = alloca i32, align 4
  %7 = alloca i32, align 4
  %8 = alloca i32, align 4
  %9 = alloca i32, align 4
  %10 = alloca i32, align 4
  %11 = alloca i32, align 4
  %12 = alloca ptr, align 8
  %13 = alloca ptr, align 8
  %14 = alloca %struct.CatalogId, align 4
  %15 = alloca %struct.CatalogId, align 4
  %16 = alloca i8, align 1
  %17 = alloca i32, align 4
  store ptr %0, ptr %2, align 8
  call void @llvm.lifetime.start.p0(i64 8, ptr %3) #10
  call void @llvm.lifetime.start.p0(i64 8, ptr %4) #10
  call void @llvm.lifetime.start.p0(i64 4, ptr %5) #10
  call void @llvm.lifetime.start.p0(i64 4, ptr %6) #10
  call void @llvm.lifetime.start.p0(i64 4, ptr %7) #10
  call void @llvm.lifetime.start.p0(i64 4, ptr %8) #10
  call void @llvm.lifetime.start.p0(i64 4, ptr %9) #10
  call void @llvm.lifetime.start.p0(i64 4, ptr %10) #10
  call void @llvm.lifetime.start.p0(i64 4, ptr %11) #10
  call void @llvm.lifetime.start.p0(i64 8, ptr %12) #10
  call void @llvm.lifetime.start.p0(i64 8, ptr %13) #10
  call void (i32, i32, ptr, ...) @pg_log_generic(i32 noundef 2, i32 noundef 0, ptr noundef @.str.1612)
  %18 = call ptr @createPQExpBuffer()
  store ptr %18, ptr %3, align 8
  %19 = load ptr, ptr %3, align 8
  call void @appendPQExpBufferStr(ptr noundef %19, ptr noundef @.str.1613)
  %20 = load ptr, ptr %3, align 8
  call void @appendPQExpBufferStr(ptr noundef %20, ptr noundef @.str.1614)
  %21 = load ptr, ptr %3, align 8
  call void @appendPQExpBufferStr(ptr noundef %21, ptr noundef @.str.1615)
  %22 = load ptr, ptr %3, align 8
  call void @appendPQExpBufferStr(ptr noundef %22, ptr noundef @.str.1616)
  %23 = load ptr, ptr %2, align 8
  %24 = load ptr, ptr %3, align 8
  %25 = getelementptr inbounds nuw %struct.PQExpBufferData, ptr %24, i32 0, i32 0
  %26 = load ptr, ptr %25, align 8
  %27 = call ptr @ExecuteSqlQuery(ptr noundef %23, ptr noundef %26, i32 noundef 2)
  store ptr %27, ptr %4, align 8
  %28 = load ptr, ptr %4, align 8
  %29 = call i32 @PQntuples(ptr noundef %28)
  store i32 %29, ptr %5, align 4
  %30 = load ptr, ptr %4, align 8
  %31 = call i32 @PQfnumber(ptr noundef %30, ptr noundef @.str.516)
  store i32 %31, ptr %7, align 4
  %32 = load ptr, ptr %4, align 8
  %33 = call i32 @PQfnumber(ptr noundef %32, ptr noundef @.str.517)
  store i32 %33, ptr %8, align 4
  %34 = load ptr, ptr %4, align 8
  %35 = call i32 @PQfnumber(ptr noundef %34, ptr noundef @.str.1617)
  store i32 %35, ptr %9, align 4
  %36 = load ptr, ptr %4, align 8
  %37 = call i32 @PQfnumber(ptr noundef %36, ptr noundef @.str.518)
  store i32 %37, ptr %10, align 4
  %38 = load ptr, ptr %4, align 8
  %39 = call i32 @PQfnumber(ptr noundef %38, ptr noundef @.str.1618)
  store i32 %39, ptr %11, align 4
  store ptr null, ptr %12, align 8
  store i32 0, ptr %6, align 4
  br label %40

40:                                               ; preds = %144, %1
  %41 = load i32, ptr %6, align 4
  %42 = load i32, ptr %5, align 4
  %43 = icmp slt i32 %41, %42
  br i1 %43, label %44, label %147

44:                                               ; preds = %40
  call void @llvm.lifetime.start.p0(i64 8, ptr %14) #10
  call void @llvm.lifetime.start.p0(i64 8, ptr %15) #10
  call void @llvm.lifetime.start.p0(i64 1, ptr %16) #10
  %45 = load ptr, ptr %4, align 8
  %46 = load i32, ptr %6, align 4
  %47 = load i32, ptr %7, align 4
  %48 = call ptr @PQgetvalue(ptr noundef %45, i32 noundef %46, i32 noundef %47)
  %49 = call i64 @strtoul(ptr noundef %48, ptr noundef null, i32 noundef 10) #10
  %50 = trunc i64 %49 to i32
  %51 = getelementptr inbounds nuw %struct.CatalogId, ptr %14, i32 0, i32 0
  store i32 %50, ptr %51, align 4
  %52 = load ptr, ptr %4, align 8
  %53 = load i32, ptr %6, align 4
  %54 = load i32, ptr %8, align 4
  %55 = call ptr @PQgetvalue(ptr noundef %52, i32 noundef %53, i32 noundef %54)
  %56 = call i64 @strtoul(ptr noundef %55, ptr noundef null, i32 noundef 10) #10
  %57 = trunc i64 %56 to i32
  %58 = getelementptr inbounds nuw %struct.CatalogId, ptr %14, i32 0, i32 1
  store i32 %57, ptr %58, align 4
  %59 = load ptr, ptr %4, align 8
  %60 = load i32, ptr %6, align 4
  %61 = load i32, ptr %9, align 4
  %62 = call ptr @PQgetvalue(ptr noundef %59, i32 noundef %60, i32 noundef %61)
  %63 = call i64 @strtoul(ptr noundef %62, ptr noundef null, i32 noundef 10) #10
  %64 = trunc i64 %63 to i32
  %65 = getelementptr inbounds nuw %struct.CatalogId, ptr %15, i32 0, i32 0
  store i32 %64, ptr %65, align 4
  %66 = load ptr, ptr %4, align 8
  %67 = load i32, ptr %6, align 4
  %68 = load i32, ptr %10, align 4
  %69 = call ptr @PQgetvalue(ptr noundef %66, i32 noundef %67, i32 noundef %68)
  %70 = call i64 @strtoul(ptr noundef %69, ptr noundef null, i32 noundef 10) #10
  %71 = trunc i64 %70 to i32
  %72 = getelementptr inbounds nuw %struct.CatalogId, ptr %15, i32 0, i32 1
  store i32 %71, ptr %72, align 4
  %73 = load ptr, ptr %4, align 8
  %74 = load i32, ptr %6, align 4
  %75 = load i32, ptr %11, align 4
  %76 = call ptr @PQgetvalue(ptr noundef %73, i32 noundef %74, i32 noundef %75)
  %77 = load i8, ptr %76, align 1
  store i8 %77, ptr %16, align 1
  %78 = load ptr, ptr %12, align 8
  %79 = icmp eq ptr %78, null
  br i1 %79, label %96, label %80

80:                                               ; preds = %44
  %81 = load ptr, ptr %12, align 8
  %82 = getelementptr inbounds nuw %struct._dumpableObject, ptr %81, i32 0, i32 1
  %83 = getelementptr inbounds nuw %struct.CatalogId, ptr %82, i32 0, i32 0
  %84 = load i32, ptr %83, align 4
  %85 = getelementptr inbounds nuw %struct.CatalogId, ptr %14, i32 0, i32 0
  %86 = load i32, ptr %85, align 4
  %87 = icmp ne i32 %84, %86
  br i1 %87, label %96, label %88

88:                                               ; preds = %80
  %89 = load ptr, ptr %12, align 8
  %90 = getelementptr inbounds nuw %struct._dumpableObject, ptr %89, i32 0, i32 1
  %91 = getelementptr inbounds nuw %struct.CatalogId, ptr %90, i32 0, i32 1
  %92 = load i32, ptr %91, align 4
  %93 = getelementptr inbounds nuw %struct.CatalogId, ptr %14, i32 0, i32 1
  %94 = load i32, ptr %93, align 4
  %95 = icmp ne i32 %92, %94
  br i1 %95, label %96, label %99

96:                                               ; preds = %88, %80, %44
  %97 = load i64, ptr %14, align 4
  %98 = call ptr @findObjectByCatalogId(i64 %97)
  store ptr %98, ptr %12, align 8
  br label %99

99:                                               ; preds = %96, %88
  %100 = load ptr, ptr %12, align 8
  %101 = icmp eq ptr %100, null
  br i1 %101, label %102, label %103

102:                                              ; preds = %99
  store i32 4, ptr %17, align 4
  br label %141

103:                                              ; preds = %99
  %104 = load i64, ptr %15, align 4
  %105 = call ptr @findObjectByCatalogId(i64 %104)
  store ptr %105, ptr %13, align 8
  %106 = load ptr, ptr %13, align 8
  %107 = icmp eq ptr %106, null
  br i1 %107, label %108, label %109

108:                                              ; preds = %103
  store i32 4, ptr %17, align 4
  br label %141

109:                                              ; preds = %103
  %110 = load i8, ptr %16, align 1
  %111 = sext i8 %110 to i32
  %112 = icmp eq i32 %111, 120
  br i1 %112, label %113, label %116

113:                                              ; preds = %109
  %114 = load ptr, ptr %12, align 8
  %115 = getelementptr inbounds nuw %struct._dumpableObject, ptr %114, i32 0, i32 9
  store i8 1, ptr %115, align 1
  br label %116

116:                                              ; preds = %113, %109
  %117 = load i8, ptr %16, align 1
  %118 = sext i8 %117 to i32
  %119 = icmp eq i32 %118, 105
  br i1 %119, label %120, label %135

120:                                              ; preds = %116
  %121 = load ptr, ptr %12, align 8
  %122 = getelementptr inbounds nuw %struct._dumpableObject, ptr %121, i32 0, i32 0
  %123 = load i32, ptr %122, align 8
  %124 = icmp eq i32 %123, 12
  br i1 %124, label %125, label %135

125:                                              ; preds = %120
  %126 = load ptr, ptr %13, align 8
  %127 = getelementptr inbounds nuw %struct._dumpableObject, ptr %126, i32 0, i32 0
  %128 = load i32, ptr %127, align 8
  %129 = icmp eq i32 %128, 2
  br i1 %129, label %130, label %135

130:                                              ; preds = %125
  %131 = load ptr, ptr %13, align 8
  %132 = load ptr, ptr %12, align 8
  %133 = getelementptr inbounds nuw %struct._dumpableObject, ptr %132, i32 0, i32 2
  %134 = load i32, ptr %133, align 4
  call void @addObjectDependency(ptr noundef %131, i32 noundef %134)
  br label %140

135:                                              ; preds = %125, %120, %116
  %136 = load ptr, ptr %12, align 8
  %137 = load ptr, ptr %13, align 8
  %138 = getelementptr inbounds nuw %struct._dumpableObject, ptr %137, i32 0, i32 2
  %139 = load i32, ptr %138, align 4
  call void @addObjectDependency(ptr noundef %136, i32 noundef %139)
  br label %140

140:                                              ; preds = %135, %130
  store i32 0, ptr %17, align 4
  br label %141

141:                                              ; preds = %140, %108, %102
  call void @llvm.lifetime.end.p0(i64 1, ptr %16) #10
  call void @llvm.lifetime.end.p0(i64 8, ptr %15) #10
  call void @llvm.lifetime.end.p0(i64 8, ptr %14) #10
  %142 = load i32, ptr %17, align 4
  switch i32 %142, label %150 [
    i32 0, label %143
    i32 4, label %144
  ]

143:                                              ; preds = %141
  br label %144

144:                                              ; preds = %143, %141
  %145 = load i32, ptr %6, align 4
  %146 = add i32 %145, 1
  store i32 %146, ptr %6, align 4
  br label %40, !llvm.loop !25

147:                                              ; preds = %40
  %148 = load ptr, ptr %4, align 8
  call void @PQclear(ptr noundef %148)
  %149 = load ptr, ptr %3, align 8
  call void @destroyPQExpBuffer(ptr noundef %149)
  call void @llvm.lifetime.end.p0(i64 8, ptr %13) #10
  call void @llvm.lifetime.end.p0(i64 8, ptr %12) #10
  call void @llvm.lifetime.end.p0(i64 4, ptr %11) #10
  call void @llvm.lifetime.end.p0(i64 4, ptr %10) #10
  call void @llvm.lifetime.end.p0(i64 4, ptr %9) #10
  call void @llvm.lifetime.end.p0(i64 4, ptr %8) #10
  call void @llvm.lifetime.end.p0(i64 4, ptr %7) #10
  call void @llvm.lifetime.end.p0(i64 4, ptr %6) #10
  call void @llvm.lifetime.end.p0(i64 4, ptr %5) #10
  call void @llvm.lifetime.end.p0(i64 8, ptr %4) #10
  call void @llvm.lifetime.end.p0(i64 8, ptr %3) #10
  ret void

150:                                              ; preds = %141
  unreachable
}