; Function Attrs: nounwind uwtable
define internal fastcc void @getDependencies(ptr noundef %0) unnamed_addr #5 {
  tail call void (i32, i32, ptr, ...) @pg_log_generic(i32 noundef 2, i32 noundef 0, ptr noundef nonnull @.str.1612) #14
  %2 = tail call ptr @createPQExpBuffer() #14
  tail call void @appendPQExpBufferStr(ptr noundef %2, ptr noundef nonnull @.str.1613) #14
  tail call void @appendPQExpBufferStr(ptr noundef %2, ptr noundef nonnull @.str.1614) #14
  tail call void @appendPQExpBufferStr(ptr noundef %2, ptr noundef nonnull @.str.1615) #14
  tail call void @appendPQExpBufferStr(ptr noundef %2, ptr noundef nonnull @.str.1616) #14
  %3 = load ptr, ptr %2, align 8
  %4 = tail call ptr @ExecuteSqlQuery(ptr noundef %0, ptr noundef %3, i32 noundef 2) #14
  %5 = tail call i32 @PQntuples(ptr noundef %4) #14
  %6 = tail call i32 @PQfnumber(ptr noundef %4, ptr noundef nonnull @.str.516) #14
  %7 = tail call i32 @PQfnumber(ptr noundef %4, ptr noundef nonnull @.str.517) #14
  %8 = tail call i32 @PQfnumber(ptr noundef %4, ptr noundef nonnull @.str.1617) #14
  %9 = tail call i32 @PQfnumber(ptr noundef %4, ptr noundef nonnull @.str.518) #14
  %10 = tail call i32 @PQfnumber(ptr noundef %4, ptr noundef nonnull @.str.1618) #14
  %11 = icmp sgt i32 %5, 0
  br i1 %11, label %.lr.ph, label %._crit_edge

.lr.ph:                                           ; preds = %1, %48
  %.054 = phi i32 [ %49, %48 ], [ 0, %1 ]
  %.04753 = phi ptr [ %.152, %48 ], [ null, %1 ]
  %12 = tail call ptr @PQgetvalue(ptr noundef %4, i32 noundef %.054, i32 noundef %6) #14
  %13 = tail call i64 @strtoul(ptr noundef captures(none) %12, ptr noundef null, i32 noundef 10) #14
  %14 = tail call ptr @PQgetvalue(ptr noundef %4, i32 noundef %.054, i32 noundef %7) #14
  %15 = tail call i64 @strtoul(ptr noundef captures(none) %14, ptr noundef null, i32 noundef 10) #14
  %16 = trunc i64 %15 to i32
  %17 = tail call ptr @PQgetvalue(ptr noundef %4, i32 noundef %.054, i32 noundef %8) #14
  %18 = tail call i64 @strtoul(ptr noundef captures(none) %17, ptr noundef null, i32 noundef 10) #14
  %19 = tail call ptr @PQgetvalue(ptr noundef %4, i32 noundef %.054, i32 noundef %9) #14
  %20 = tail call i64 @strtoul(ptr noundef captures(none) %19, ptr noundef null, i32 noundef 10) #14
  %21 = tail call ptr @PQgetvalue(ptr noundef %4, i32 noundef %.054, i32 noundef %10) #14
  %22 = load i8, ptr %21, align 1
  %23 = icmp eq ptr %.04753, null
  br i1 %23, label %31, label %24

24:                                               ; preds = %.lr.ph
  %25 = trunc i64 %13 to i32
  %26 = getelementptr inbounds nuw i8, ptr %.04753, i64 4
  %27 = load i32, ptr %26, align 4
  %.not = icmp eq i32 %27, %25
  br i1 %.not, label %28, label %31

28:                                               ; preds = %24
  %29 = getelementptr inbounds nuw i8, ptr %.04753, i64 8
  %30 = load i32, ptr %29, align 4
  %.not49 = icmp eq i32 %30, %16
  br i1 %.not49, label %.thread, label %31

31:                                               ; preds = %.lr.ph, %24, %28
  %.sroa.5.0.insert.ext = shl i64 %15, 32
  %.sroa.02.0.insert.ext = and i64 %13, 4294967295
  %.sroa.02.0.insert.insert = or disjoint i64 %.sroa.5.0.insert.ext, %.sroa.02.0.insert.ext
  %32 = tail call ptr @findObjectByCatalogId(i64 %.sroa.02.0.insert.insert) #14
  %33 = icmp eq ptr %32, null
  br i1 %33, label %48, label %.thread

.thread:                                          ; preds = %28, %31
  %.151 = phi ptr [ %32, %31 ], [ %.04753, %28 ]
  %.sroa.4.0.insert.ext = shl i64 %20, 32
  %.sroa.0.0.insert.ext = and i64 %18, 4294967295
  %.sroa.0.0.insert.insert = or disjoint i64 %.sroa.4.0.insert.ext, %.sroa.0.0.insert.ext
  %34 = tail call ptr @findObjectByCatalogId(i64 %.sroa.0.0.insert.insert) #14
  %35 = icmp eq ptr %34, null
  br i1 %35, label %48, label %36

36:                                               ; preds = %.thread
  switch i8 %22, label %45 [
    i8 120, label %37
    i8 105, label %39
  ]

37:                                               ; preds = %36
  %38 = getelementptr inbounds nuw i8, ptr %.151, i64 45
  store i8 1, ptr %38, align 1
  br label %45

39:                                               ; preds = %36
  %40 = load i32, ptr %.151, align 8
  %41 = icmp eq i32 %40, 12
  br i1 %41, label %42, label %45

42:                                               ; preds = %39
  %43 = load i32, ptr %34, align 8
  %44 = icmp eq i32 %43, 2
  br i1 %44, label %.sink.split, label %45

45:                                               ; preds = %37, %36, %42, %39
  br label %.sink.split

.sink.split:                                      ; preds = %42, %45
  %.151.sink = phi ptr [ %34, %45 ], [ %.151, %42 ]
  %.sink = phi ptr [ %.151, %45 ], [ %34, %42 ]
  %46 = getelementptr inbounds nuw i8, ptr %.151.sink, i64 12
  %47 = load i32, ptr %46, align 4
  tail call void @addObjectDependency(ptr noundef nonnull %.sink, i32 noundef %47) #14
  br label %48

48:                                               ; preds = %.sink.split, %.thread, %31
  %.152 = phi ptr [ %.151, %.thread ], [ null, %31 ], [ %.151, %.sink.split ]
  %49 = add nuw nsw i32 %.054, 1
  %exitcond.not = icmp eq i32 %49, %5
  br i1 %exitcond.not, label %._crit_edge, label %.lr.ph, !llvm.loop !45

._crit_edge:                                      ; preds = %48, %1
  tail call void @PQclear(ptr noundef %4) #14
  tail call void @destroyPQExpBuffer(ptr noundef nonnull %2) #14
  ret void
}